; Function Attrs: mustprogress nounwind uwtable
define dso_local void @_ZN5clang4ento22CheckerProgramPointTagC2EPKNS0_11CheckerBaseEN4llvm9StringRefE(ptr noundef nonnull align 8 dereferenceable(48) %0, ptr nocapture noundef readonly %1, ptr %2, i64 %3) unnamed_addr #2 align 2 {
  %5 = getelementptr inbounds nuw i8, ptr %1, i64 16
  %.sroa.0.0.copyload.i = load ptr, ptr %5, align 8
  %.sroa.2.0..sroa_idx.i = getelementptr inbounds i8, ptr %1, i64 24
  %.sroa.2.0.copyload.i = load i64, ptr %.sroa.2.0..sroa_idx.i, align 8
  tail call void @_ZN5clang21SimpleProgramPointTagC2EN4llvm9StringRefES2_(ptr noundef nonnull align 8 dereferenceable(48) %0, ptr %.sroa.0.0.copyload.i, i64 %.sroa.2.0.copyload.i, ptr %2, i64 %3) #6
  store ptr getelementptr inbounds inrange(-16, 24) (i8, ptr @_ZTVN5clang4ento22CheckerProgramPointTagE, i64 16), ptr %0, align 8
  ret void
}